target datalayout = "e-m:e-p270:32:32-p271:32:32-p272:64:64-i64:64-i128:128-f80:128-n8:16:32:64-S128"
target triple = "x86_64-pc-linux-gnu"

%"class.std::ios_base" = type { ptr, i64, i64, i32, i32, i32, ptr, %"struct.std::ios_base::_Words", [8 x %"struct.std::ios_base::_Words"], i32, ptr, %"class.std::locale" }
%"struct.std::ios_base::_Words" = type { ptr, i64 }
%"class.std::locale" = type { ptr }
%class.InstrCountVisitor = type { %class.VNVisitorConst, [4 x i8], i32, ptr, i8, i8, i8, i8, ptr }
%class.VNVisitorConst = type { ptr }
%class.InstrCountDumpVisitor = type <{ %class.VNVisitorConst, ptr, i32, [4 x i8] }>
%class.V3ErrorCode = type { i8 }

@_ZTV14VNVisitorConst = external unnamed_addr constant { [469 x ptr] }, align 8
@_ZN12VNUser2InUse12s_userCntGblE = external global i32, align 4
@_ZN12VNUser2InUse10s_userBusyE = external global i8, align 1
@.str.12 = private unnamed_addr constant [118 x i8] c"generated/home/dtcxzyw/WorkSpace/Projects/compilers/llvm-opt-benchmark/bench/verilator/verilator/src/V3InstrCount.cpp\00", align 1
@.str.30 = private unnamed_addr constant [26 x i8] c"Don't call if not dumping\00", align 1

; Function Attrs: inlinehint mustprogress nounwind uwtable
define linkonce_odr dso_local noundef i32 @_ZStorSt12_Ios_IostateS_(i32 noundef %0, i32 noundef %1) #7 comdat {
  %3 = alloca i32, align 4
  %4 = alloca i32, align 4
  store i32 %0, ptr %3, align 4, !tbaa !80
  store i32 %1, ptr %4, align 4, !tbaa !80
  %5 = load i32, ptr %3, align 4, !tbaa !80
  %6 = load i32, ptr %4, align 4, !tbaa !80
  %7 = or i32 %5, %6
  ret i32 %7
}

; Function Attrs: mustprogress nounwind uwtable
define available_externally noundef i32 @_ZNKSt9basic_iosIcSt11char_traitsIcEE7rdstateEv(ptr noundef nonnull align 8 dereferenceable(264) %0) #6 align 2 {
  %2 = alloca ptr, align 8
  store ptr %0, ptr %2, align 8, !tbaa !78
  %3 = load ptr, ptr %2, align 8
  %4 = getelementptr inbounds nuw %"class.std::ios_base", ptr %3, i32 0, i32 5
  %5 = load i32, ptr %4, align 8, !tbaa !82
  ret i32 %5
}

; Function Attrs: mustprogress nounwind uwtable
define linkonce_odr dso_local noundef i64 @_ZNSt11char_traitsIcE6lengthEPKc(ptr noundef %0) #6 comdat align 2 {
  %2 = alloca ptr, align 8
  store ptr %0, ptr %2, align 8, !tbaa !68
  %3 = load ptr, ptr %2, align 8, !tbaa !68
  %4 = call i64 @strlen(ptr noundef %3) #3
  ret i64 %4
}

; Function Attrs: mustprogress uwtable
define available_externally void @_ZNSt9basic_iosIcSt11char_traitsIcEE8setstateESt12_Ios_Iostate(ptr noundef nonnull align 8 dereferenceable(264) %0, i32 noundef %1) #4 align 2 {
  %3 = alloca ptr, align 8
  %4 = alloca i32, align 4
  store ptr %0, ptr %3, align 8, !tbaa !78
  store i32 %1, ptr %4, align 4, !tbaa !80
  %5 = load ptr, ptr %3, align 8
  %6 = call noundef i32 @_ZNKSt9basic_iosIcSt11char_traitsIcEE7rdstateEv(ptr noundef nonnull align 8 dereferenceable(264) %5)
  %7 = load i32, ptr %4, align 4, !tbaa !80
  %8 = call noundef i32 @_ZStorSt12_Ios_IostateS_(i32 noundef %6, i32 noundef %7)
  call void @_ZNSt9basic_iosIcSt11char_traitsIcEE5clearESt12_Ios_Iostate(ptr noundef nonnull align 8 dereferenceable(264) %5, i32 noundef %8)
  ret void
}

; Function Attrs: inlinehint mustprogress uwtable
define linkonce_odr dso_local void @_ZN14VNVisitorConst12iterateConstEP7AstNode(ptr noundef nonnull align 8 dereferenceable(8) %0, ptr noundef %1) #8 comdat align 2 {
  %3 = alloca ptr, align 8
  %4 = alloca ptr, align 8
  store ptr %0, ptr %3, align 8, !tbaa !35
  store ptr %1, ptr %4, align 8, !tbaa !4
  %5 = load ptr, ptr %3, align 8
  %6 = load ptr, ptr %4, align 8, !tbaa !4
  %7 = load ptr, ptr %6, align 8, !tbaa !17
  %8 = getelementptr inbounds ptr, ptr %7, i64 36
  %9 = load ptr, ptr %8, align 8
  call void %9(ptr noundef nonnull align 8 dereferenceable(152) %6, ptr noundef nonnull align 8 dereferenceable(8) %5)
  ret void
}

; Function Attrs: inlinehint mustprogress uwtable
define available_externally noundef nonnull align 8 dereferenceable(8) ptr @_ZStlsISt11char_traitsIcEERSt13basic_ostreamIcT_ES5_PKc(ptr noundef nonnull align 8 dereferenceable(8) %0, ptr noundef %1) #8 {
  %3 = alloca ptr, align 8
  %4 = alloca ptr, align 8
  store ptr %0, ptr %3, align 8, !tbaa !11
  store ptr %1, ptr %4, align 8, !tbaa !68
  %5 = load ptr, ptr %4, align 8, !tbaa !68
  %6 = icmp ne ptr %5, null
  br i1 %6, label %13, label %7

7:                                                ; preds = %2
  %8 = load ptr, ptr %3, align 8, !tbaa !11
  %9 = load ptr, ptr %8, align 8, !tbaa !17
  %10 = getelementptr i8, ptr %9, i64 -24
  %11 = load i64, ptr %10, align 8
  %12 = getelementptr inbounds i8, ptr %8, i64 %11
  call void @_ZNSt9basic_iosIcSt11char_traitsIcEE8setstateESt12_Ios_Iostate(ptr noundef nonnull align 8 dereferenceable(264) %12, i32 noundef 1)
  br label %19

13:                                               ; preds = %2
  %14 = load ptr, ptr %3, align 8, !tbaa !11
  %15 = load ptr, ptr %4, align 8, !tbaa !68
  %16 = load ptr, ptr %4, align 8, !tbaa !68
  %17 = call noundef i64 @_ZNSt11char_traitsIcE6lengthEPKc(ptr noundef %16)
  %18 = call noundef nonnull align 8 dereferenceable(8) ptr @_ZSt16__ostream_insertIcSt11char_traitsIcEERSt13basic_ostreamIT_T0_ES6_PKS3_l(ptr noundef nonnull align 8 dereferenceable(8) %14, ptr noundef %15, i64 noundef %17)
  br label %19

19:                                               ; preds = %13, %7
  %20 = load ptr, ptr %3, align 8, !tbaa !11
  ret ptr %20
}

; Function Attrs: mustprogress nounwind uwtable
define linkonce_odr dso_local void @_ZN11V3ErrorCodeC2ENS_2enE(ptr noundef nonnull align 1 dereferenceable(1) %0, i8 noundef zeroext %1) unnamed_addr #6 comdat align 2 {
  %3 = alloca ptr, align 8
  %4 = alloca i8, align 1
  store ptr %0, ptr %3, align 8, !tbaa !153
  store i8 %1, ptr %4, align 1, !tbaa !155
  %5 = load ptr, ptr %3, align 8
  %6 = getelementptr inbounds nuw %class.V3ErrorCode, ptr %5, i32 0, i32 0
  %7 = load i8, ptr %4, align 1, !tbaa !155
  store i8 %7, ptr %6, align 1, !tbaa !157
  ret void
}

; Function Attrs: inlinehint mustprogress uwtable
define linkonce_odr dso_local void @_ZN14VNVisitorConst16iterateConstNullEP7AstNode(ptr noundef nonnull align 8 dereferenceable(8) %0, ptr noundef %1) #8 comdat align 2 {
  %3 = alloca ptr, align 8
  %4 = alloca ptr, align 8
  store ptr %0, ptr %3, align 8, !tbaa !35
  store ptr %1, ptr %4, align 8, !tbaa !4
  %5 = load ptr, ptr %3, align 8
  %6 = load ptr, ptr %4, align 8, !tbaa !4
  %7 = icmp ne ptr %6, null
  %8 = xor i1 %7, true
  %9 = xor i1 %8, true
  %10 = zext i1 %9 to i64
  %11 = call i64 @llvm.expect.i64(i64 %10, i64 1)
  %12 = icmp ne i64 %11, 0
  br i1 %12, label %13, label %18

13:                                               ; preds = %2
  %14 = load ptr, ptr %4, align 8, !tbaa !4
  %15 = load ptr, ptr %14, align 8, !tbaa !17
  %16 = getelementptr inbounds ptr, ptr %15, i64 36
  %17 = load ptr, ptr %16, align 8
  call void %17(ptr noundef nonnull align 8 dereferenceable(152) %14, ptr noundef nonnull align 8 dereferenceable(8) %5)
  br label %18

18:                                               ; preds = %13, %2
  ret void
}

; Function Attrs: mustprogress uwtable
define linkonce_odr dso_local void @_ZN12VNUser2InUseC2Ev(ptr noundef nonnull align 1 dereferenceable(1) %0) unnamed_addr #4 comdat align 2 {
  %2 = alloca ptr, align 8
  store ptr %0, ptr %2, align 8, !tbaa !37
  call void @_ZN15VNUserInUseBase8allocateEiRjRb(i32 noundef 2, ptr noundef nonnull align 4 dereferenceable(4) @_ZN12VNUser2InUse12s_userCntGblE, ptr noundef nonnull align 1 dereferenceable(1) @_ZN12VNUser2InUse10s_userBusyE)
  ret void
}

; Function Attrs: inlinehint mustprogress nounwind uwtable
define linkonce_odr dso_local void @_ZN14VNVisitorConstC2Ev(ptr noundef nonnull align 8 dereferenceable(8) %0) unnamed_addr #7 comdat align 2 {
  %2 = alloca ptr, align 8
  store ptr %0, ptr %2, align 8, !tbaa !35
  %3 = load ptr, ptr %2, align 8
  store ptr getelementptr inbounds inrange(-16, 3736) ({ [469 x ptr] }, ptr @_ZTV14VNVisitorConst, i32 0, i32 0, i32 2), ptr %3, align 8, !tbaa !17
  ret void
}

; Function Attrs: mustprogress nounwind uwtable
define linkonce_odr dso_local noundef i32 @_ZNK17InstrCountVisitor10instrCountEv(ptr noundef nonnull align 8 dereferenceable(40) %0) #6 comdat align 2 {
  %2 = alloca ptr, align 8
  store ptr %0, ptr %2, align 8, !tbaa !15
  %3 = load ptr, ptr %2, align 8
  %4 = getelementptr inbounds nuw %class.InstrCountVisitor, ptr %3, i32 0, i32 2
  %5 = load i32, ptr %4, align 4, !tbaa !19
  ret i32 %5
}

; Function Attrs: mustprogress nounwind uwtable
define linkonce_odr dso_local void @_ZN14VNVisitorConstD2Ev(ptr noundef nonnull align 8 dereferenceable(8) %0) unnamed_addr #6 comdat align 2 {
  %2 = alloca ptr, align 8
  store ptr %0, ptr %2, align 8, !tbaa !35
  ret void
}

; Function Attrs: mustprogress uwtable
define linkonce_odr dso_local void @_ZN21InstrCountDumpVisitorC2EP7AstNodePSo(ptr noundef nonnull align 8 dereferenceable(24) %0, ptr noundef %1, ptr noundef %2) unnamed_addr #4 comdat align 2 personality ptr @__gxx_personality_v0 {
  %4 = alloca ptr, align 8
  %5 = alloca ptr, align 8
  %6 = alloca ptr, align 8
  %7 = alloca %class.V3ErrorCode, align 1
  %8 = alloca ptr, align 8
  %9 = alloca i32, align 4
  store ptr %0, ptr %4, align 8, !tbaa !30
  store ptr %1, ptr %5, align 8, !tbaa !4
  store ptr %2, ptr %6, align 8, !tbaa !11
  %10 = load ptr, ptr %4, align 8
  call void @_ZN14VNVisitorConstC2Ev(ptr noundef nonnull align 8 dereferenceable(8) %10) #3
  store ptr getelementptr inbounds inrange(-16, 3736) ({ [469 x ptr] }, ptr @_ZTV21InstrCountDumpVisitor, i32 0, i32 0, i32 2), ptr %10, align 8, !tbaa !17
  %11 = getelementptr inbounds nuw %class.InstrCountDumpVisitor, ptr %10, i32 0, i32 1
  %12 = load ptr, ptr %6, align 8, !tbaa !11
  store ptr %12, ptr %11, align 8, !tbaa !32
  %13 = getelementptr inbounds nuw %class.InstrCountDumpVisitor, ptr %10, i32 0, i32 2
  store i32 0, ptr %13, align 8, !tbaa !34
  br label %14

14:                                               ; preds = %3
  %15 = load ptr, ptr %6, align 8, !tbaa !11
  %16 = icmp ne ptr %15, null
  %17 = xor i1 %16, true
  %18 = xor i1 %17, true
  %19 = xor i1 %18, true
  %20 = zext i1 %19 to i64
  %21 = call i64 @llvm.expect.i64(i64 %20, i64 0)
  %22 = icmp ne i64 %21, 0
  br i1 %22, label %23, label %39

23:                                               ; preds = %14
  %24 = load ptr, ptr %5, align 8, !tbaa !4
  invoke void @_ZN11V3ErrorCodeC2ENS_2enE(ptr noundef nonnull align 1 dereferenceable(1) %7, i8 noundef zeroext 4)
          to label %25 unwind label %35

25:                                               ; preds = %23
  %26 = getelementptr inbounds nuw %class.V3ErrorCode, ptr %7, i32 0, i32 0
  %27 = load i8, ptr %26, align 1
  %28 = invoke noundef nonnull align 8 dereferenceable(112) ptr @_ZN7V3Error19v3errorPrepFileLineB5cxx11E11V3ErrorCodePKci(i8 %27, ptr noundef @.str.12, i32 noundef 300)
          to label %29 unwind label %35

29:                                               ; preds = %25
  %30 = invoke noundef nonnull align 8 dereferenceable(112) ptr @_ZN7V3Error10v3errorStrB5cxx11Ev()
          to label %31 unwind label %35

31:                                               ; preds = %29
  %32 = invoke noundef nonnull align 8 dereferenceable(8) ptr @_ZStlsISt11char_traitsIcEERSt13basic_ostreamIcT_ES5_PKc(ptr noundef nonnull align 8 dereferenceable(8) %30, ptr noundef @.str.30)
          to label %33 unwind label %35

33:                                               ; preds = %31
  invoke void @_ZNK7AstNode15v3errorEndFatalERNSt7__cxx1119basic_ostringstreamIcSt11char_traitsIcESaIcEEE(ptr noundef nonnull align 8 dereferenceable(152) %24, ptr noundef nonnull align 8 dereferenceable(112) %32) #16
          to label %34 unwind label %35

34:                                               ; preds = %33
  unreachable

35:                                               ; preds = %44, %33, %31, %29, %25, %23
  %36 = landingpad { ptr, i32 }
          cleanup
  %37 = extractvalue { ptr, i32 } %36, 0
  store ptr %37, ptr %8, align 8
  %38 = extractvalue { ptr, i32 } %36, 1
  store i32 %38, ptr %9, align 4
  call void @_ZN14VNVisitorConstD2Ev(ptr noundef nonnull align 8 dereferenceable(8) %10) #3
  br label %48

39:                                               ; preds = %14
  br label %40

40:                                               ; preds = %39
  br label %41

41:                                               ; preds = %40
  %42 = load ptr, ptr %5, align 8, !tbaa !4
  %43 = icmp ne ptr %42, null
  br i1 %43, label %44, label %47

44:                                               ; preds = %41
  %45 = load ptr, ptr %5, align 8, !tbaa !4
  invoke void @_ZN14VNVisitorConst12iterateConstEP7AstNode(ptr noundef nonnull align 8 dereferenceable(8) %10, ptr noundef %45)
          to label %46 unwind label %35

46:                                               ; preds = %44
  br label %47

47:                                               ; preds = %46, %41
  ret void

48:                                               ; preds = %35
  %49 = load ptr, ptr %8, align 8
  %50 = load i32, ptr %9, align 4
  %51 = insertvalue { ptr, i32 } poison, ptr %49, 0
  %52 = insertvalue { ptr, i32 } %51, i32 %50, 1
  resume { ptr, i32 } %52
}

; Function Attrs: mustprogress uwtable
define linkonce_odr dso_local void @_ZN17InstrCountVisitorC2EP7AstNodebPSo(ptr noundef nonnull align 8 dereferenceable(40) %0, ptr noundef %1, i1 noundef zeroext %2, ptr noundef %3) unnamed_addr #4 comdat align 2 personality ptr @__gxx_personality_v0 {
  %5 = alloca ptr, align 8
  %6 = alloca ptr, align 8
  %7 = alloca i8, align 1
  %8 = alloca ptr, align 8
  %9 = alloca ptr, align 8
  %10 = alloca i32, align 4
  store ptr %0, ptr %5, align 8, !tbaa !15
  store ptr %1, ptr %6, align 8, !tbaa !4
  %11 = zext i1 %2 to i8
  store i8 %11, ptr %7, align 1, !tbaa !9
  store ptr %3, ptr %8, align 8, !tbaa !11
  %12 = load ptr, ptr %5, align 8
  call void @_ZN14VNVisitorConstC2Ev(ptr noundef nonnull align 8 dereferenceable(8) %12) #3
  store ptr getelementptr inbounds inrange(-16, 3736) ({ [469 x ptr] }, ptr @_ZTV17InstrCountVisitor, i32 0, i32 0, i32 2), ptr %12, align 8, !tbaa !17
  %13 = getelementptr inbounds i8, ptr %12, i64 8
  invoke void @_ZN12VNUser2InUseC2Ev(ptr noundef nonnull align 1 dereferenceable(1) %13)
          to label %14 unwind label %29

14:                                               ; preds = %4
  %15 = getelementptr inbounds nuw %class.InstrCountVisitor, ptr %12, i32 0, i32 2
  store i32 0, ptr %15, align 4, !tbaa !19
  %16 = getelementptr inbounds nuw %class.InstrCountVisitor, ptr %12, i32 0, i32 3
  %17 = load ptr, ptr %6, align 8, !tbaa !4
  store ptr %17, ptr %16, align 8, !tbaa !24
  %18 = getelementptr inbounds nuw %class.InstrCountVisitor, ptr %12, i32 0, i32 4
  store i8 0, ptr %18, align 8, !tbaa !25
  %19 = getelementptr inbounds nuw %class.InstrCountVisitor, ptr %12, i32 0, i32 5
  store i8 0, ptr %19, align 1, !tbaa !26
  %20 = getelementptr inbounds nuw %class.InstrCountVisitor, ptr %12, i32 0, i32 6
  store i8 0, ptr %20, align 2, !tbaa !27
  %21 = getelementptr inbounds nuw %class.InstrCountVisitor, ptr %12, i32 0, i32 7
  %22 = load i8, ptr %7, align 1, !tbaa !9, !range !13, !noundef !14
  %23 = trunc i8 %22 to i1
  %24 = zext i1 %23 to i8
  store i8 %24, ptr %21, align 1, !tbaa !28
  %25 = getelementptr inbounds nuw %class.InstrCountVisitor, ptr %12, i32 0, i32 8
  %26 = load ptr, ptr %8, align 8, !tbaa !11
  store ptr %26, ptr %25, align 8, !tbaa !29
  %27 = load ptr, ptr %6, align 8, !tbaa !4
  invoke void @_ZN14VNVisitorConst16iterateConstNullEP7AstNode(ptr noundef nonnull align 8 dereferenceable(8) %12, ptr noundef %27)
          to label %28 unwind label %33

28:                                               ; preds = %14
  ret void

29:                                               ; preds = %4
  %30 = landingpad { ptr, i32 }
          cleanup
  %31 = extractvalue { ptr, i32 } %30, 0
  store ptr %31, ptr %9, align 8
  %32 = extractvalue { ptr, i32 } %30, 1
  store i32 %32, ptr %10, align 4
  br label %37

33:                                               ; preds = %14
  %34 = landingpad { ptr, i32 }
          cleanup
  %35 = extractvalue { ptr, i32 } %34, 0
  store ptr %35, ptr %9, align 8
  %36 = extractvalue { ptr, i32 } %34, 1
  store i32 %36, ptr %10, align 4
  call void @_ZN12VNUser2InUseD2Ev(ptr noundef nonnull align 1 dereferenceable(1) %13) #3
  br label %37

37:                                               ; preds = %33, %29
  call void @_ZN14VNVisitorConstD2Ev(ptr noundef nonnull align 8 dereferenceable(8) %12) #3
  br label %38

38:                                               ; preds = %37
  %39 = load ptr, ptr %9, align 8
  %40 = load i32, ptr %10, align 4
  %41 = insertvalue { ptr, i32 } poison, ptr %39, 0
  %42 = insertvalue { ptr, i32 } %41, i32 %40, 1
  resume { ptr, i32 } %42
}

; Function Attrs: mustprogress uwtable
define dso_local noundef i32 @_ZN12V3InstrCount5countEP7AstNodebPSo(ptr noundef %0, i1 noundef zeroext %1, ptr noundef %2) #4 align 2 personality ptr @__gxx_personality_v0 {
  %4 = alloca ptr, align 8
  %5 = alloca i8, align 1
  %6 = alloca ptr, align 8
  %7 = alloca %class.InstrCountVisitor, align 8
  %8 = alloca %class.InstrCountDumpVisitor, align 8
  %9 = alloca ptr, align 8
  %10 = alloca i32, align 4
  store ptr %0, ptr %4, align 8, !tbaa !4
  %11 = zext i1 %1 to i8
  store i8 %11, ptr %5, align 1, !tbaa !9
  store ptr %2, ptr %6, align 8, !tbaa !11
  call void @llvm.lifetime.start.p0(i64 40, ptr %7) #3
  %12 = load ptr, ptr %4, align 8, !tbaa !4
  %13 = load i8, ptr %5, align 1, !tbaa !9, !range !13, !noundef !14
  %14 = trunc i8 %13 to i1
  %15 = load ptr, ptr %6, align 8, !tbaa !11
  call void @_ZN17InstrCountVisitorC2EP7AstNodebPSo(ptr noundef nonnull align 8 dereferenceable(40) %7, ptr noundef %12, i1 noundef zeroext %14, ptr noundef %15)
  %16 = load ptr, ptr %6, align 8, !tbaa !11
  %17 = icmp ne ptr %16, null
  br i1 %17, label %18, label %26

18:                                               ; preds = %3
  call void @llvm.lifetime.start.p0(i64 24, ptr %8) #3
  %19 = load ptr, ptr %4, align 8, !tbaa !4
  %20 = load ptr, ptr %6, align 8, !tbaa !11
  invoke void @_ZN21InstrCountDumpVisitorC2EP7AstNodePSo(ptr noundef nonnull align 8 dereferenceable(24) %8, ptr noundef %19, ptr noundef %20)
          to label %21 unwind label %22

21:                                               ; preds = %18
  call void @_ZN14VNVisitorConstD2Ev(ptr noundef nonnull align 8 dereferenceable(24) %8) #3
  call void @llvm.lifetime.end.p0(i64 24, ptr %8) #3
  br label %26

22:                                               ; preds = %18
  %23 = landingpad { ptr, i32 }
          cleanup
  %24 = extractvalue { ptr, i32 } %23, 0
  store ptr %24, ptr %9, align 8
  %25 = extractvalue { ptr, i32 } %23, 1
  store i32 %25, ptr %10, align 4
  call void @llvm.lifetime.end.p0(i64 24, ptr %8) #3
  br label %33

26:                                               ; preds = %21, %3
  %27 = invoke noundef i32 @_ZNK17InstrCountVisitor10instrCountEv(ptr noundef nonnull align 8 dereferenceable(40) %7)
          to label %28 unwind label %29

28:                                               ; preds = %26
  call void @_ZN17InstrCountVisitorD2Ev(ptr noundef nonnull align 8 dereferenceable(40) %7) #3
  call void @llvm.lifetime.end.p0(i64 40, ptr %7) #3
  ret i32 %27

29:                                               ; preds = %26
  %30 = landingpad { ptr, i32 }
          cleanup
  %31 = extractvalue { ptr, i32 } %30, 0
  store ptr %31, ptr %9, align 8
  %32 = extractvalue { ptr, i32 } %30, 1
  store i32 %32, ptr %10, align 4
  br label %33

33:                                               ; preds = %29, %22
  call void @_ZN17InstrCountVisitorD2Ev(ptr noundef nonnull align 8 dereferenceable(40) %7) #3
  call void @llvm.lifetime.end.p0(i64 40, ptr %7) #3
  br label %34

34:                                               ; preds = %33
  %35 = load ptr, ptr %9, align 8
  %36 = load i32, ptr %10, align 4
  %37 = insertvalue { ptr, i32 } poison, ptr %35, 0
  %38 = insertvalue { ptr, i32 } %37, i32 %36, 1
  resume { ptr, i32 } %38
}