; Function Attrs: mustprogress uwtable
define dso_local noundef i32 @_ZN12V3InstrCount5countEP7AstNodebPSo(ptr noundef %0, i1 noundef zeroext %1, ptr noundef %2) #3 align 2 personality ptr @__gxx_personality_v0 {
  %4 = alloca %class.InstrCountVisitor, align 8
  %5 = alloca %class.InstrCountDumpVisitor, align 8
  call void @llvm.lifetime.start.p0(i64 40, ptr nonnull %4) #18
  store ptr getelementptr inbounds nuw inrange(-16, 3736) (i8, ptr @_ZTV17InstrCountVisitor, i64 16), ptr %4, align 8, !tbaa !4
  tail call void @_ZN15VNUserInUseBase8allocateEiRjRb(i32 noundef 2, ptr noundef nonnull align 4 dereferenceable(4) @_ZN12VNUser2InUse12s_userCntGblE, ptr noundef nonnull align 1 dereferenceable(1) @_ZN12VNUser2InUse10s_userBusyE)
  %6 = zext i1 %1 to i8
  %7 = getelementptr inbounds nuw i8, ptr %4, i64 12
  store i32 0, ptr %7, align 4, !tbaa !7
  %8 = getelementptr inbounds nuw i8, ptr %4, i64 16
  store ptr %0, ptr %8, align 8, !tbaa !17
  %9 = getelementptr inbounds nuw i8, ptr %4, i64 24
  store i8 0, ptr %9, align 8, !tbaa !18
  %10 = getelementptr inbounds nuw i8, ptr %4, i64 25
  store i8 0, ptr %10, align 1, !tbaa !19
  %11 = getelementptr inbounds nuw i8, ptr %4, i64 26
  store i8 0, ptr %11, align 2, !tbaa !20
  %12 = getelementptr inbounds nuw i8, ptr %4, i64 27
  store i8 %6, ptr %12, align 1, !tbaa !21
  %13 = getelementptr inbounds nuw i8, ptr %4, i64 32
  store ptr %2, ptr %13, align 8, !tbaa !22
  %.not.i.i = icmp eq ptr %0, null
  br i1 %.not.i.i, label %_ZN17InstrCountVisitorC2EP7AstNodebPSo.exit, label %14, !prof !23

14:                                               ; preds = %3
  %15 = load ptr, ptr %0, align 8, !tbaa !4
  %16 = getelementptr inbounds nuw i8, ptr %15, i64 288
  %17 = load ptr, ptr %16, align 8
  invoke void %17(ptr noundef nonnull align 8 dereferenceable(152) %0, ptr noundef nonnull align 8 dereferenceable(40) %4)
          to label %_ZN17InstrCountVisitorC2EP7AstNodebPSo.exit.thread unwind label %18

common.resume:                                    ; preds = %28, %18
  %common.resume.op = phi { ptr, i32 } [ %19, %18 ], [ %29, %28 ]
  resume { ptr, i32 } %common.resume.op

18:                                               ; preds = %14
  %19 = landingpad { ptr, i32 }
          cleanup
  %20 = getelementptr inbounds nuw i8, ptr %4, i64 8
  call void @_ZN12VNUser2InUseD2Ev(ptr noundef nonnull align 1 dereferenceable(1) %20) #18
  br label %common.resume

_ZN17InstrCountVisitorC2EP7AstNodebPSo.exit:      ; preds = %3
  %.not = icmp eq ptr %2, null
  br i1 %.not, label %30, label %21

_ZN17InstrCountVisitorC2EP7AstNodebPSo.exit.thread: ; preds = %14
  %.not11 = icmp eq ptr %2, null
  br i1 %.not11, label %30, label %22

21:                                               ; preds = %_ZN17InstrCountVisitorC2EP7AstNodebPSo.exit
  call void @llvm.lifetime.start.p0(i64 24, ptr nonnull %5) #18
  br label %_ZN21InstrCountDumpVisitorC2EP7AstNodePSo.exit

22:                                               ; preds = %_ZN17InstrCountVisitorC2EP7AstNodebPSo.exit.thread
  call void @llvm.lifetime.start.p0(i64 24, ptr nonnull %5) #18
  store ptr getelementptr inbounds nuw inrange(-16, 3736) (i8, ptr @_ZTV21InstrCountDumpVisitor, i64 16), ptr %5, align 8, !tbaa !4
  %23 = getelementptr inbounds nuw i8, ptr %5, i64 8
  store ptr %2, ptr %23, align 8, !tbaa !24
  %24 = getelementptr inbounds nuw i8, ptr %5, i64 16
  store i32 0, ptr %24, align 8, !tbaa !26
  %25 = load ptr, ptr %0, align 8, !tbaa !4
  %26 = getelementptr inbounds nuw i8, ptr %25, i64 288
  %27 = load ptr, ptr %26, align 8
  invoke void %27(ptr noundef nonnull align 8 dereferenceable(152) %0, ptr noundef nonnull align 8 dereferenceable(24) %5)
          to label %_ZN21InstrCountDumpVisitorC2EP7AstNodePSo.exit unwind label %28

_ZN21InstrCountDumpVisitorC2EP7AstNodePSo.exit:   ; preds = %21, %22
  call void @llvm.lifetime.end.p0(i64 24, ptr nonnull %5) #18
  br label %30

28:                                               ; preds = %22
  %29 = landingpad { ptr, i32 }
          cleanup
  call void @llvm.lifetime.end.p0(i64 24, ptr nonnull %5) #18
  call void @_ZN17InstrCountVisitorD2Ev(ptr noundef nonnull align 8 dereferenceable(40) %4) #18
  call void @llvm.lifetime.end.p0(i64 40, ptr nonnull %4) #18
  br label %common.resume

30:                                               ; preds = %_ZN17InstrCountVisitorC2EP7AstNodebPSo.exit.thread, %_ZN21InstrCountDumpVisitorC2EP7AstNodePSo.exit, %_ZN17InstrCountVisitorC2EP7AstNodebPSo.exit
  %31 = load i32, ptr %7, align 4, !tbaa !7
  invoke void @_ZN15VNUserInUseBase4freeEiRjRb(i32 noundef 2, ptr noundef nonnull align 4 dereferenceable(4) @_ZN12VNUser2InUse12s_userCntGblE, ptr noundef nonnull align 1 dereferenceable(1) @_ZN12VNUser2InUse10s_userBusyE)
          to label %_ZN17InstrCountVisitorD2Ev.exit unwind label %32

32:                                               ; preds = %30
  %33 = landingpad { ptr, i32 }
          catch ptr null
  %34 = extractvalue { ptr, i32 } %33, 0
  call void @__clang_call_terminate(ptr %34) #19
  unreachable

_ZN17InstrCountVisitorD2Ev.exit:                  ; preds = %30
  call void @llvm.lifetime.end.p0(i64 40, ptr nonnull %4) #18
  ret i32 %31
}